target datalayout = "e-m:e-p270:32:32-p271:32:32-p272:64:64-i64:64-i128:128-f80:128-n8:16:32:64-S128"
target triple = "x86_64-pc-linux-gnu"

@.str.380 = private unnamed_addr constant [6 x i8] c"iy#|z\00", align 1
@.str.381 = private unnamed_addr constant [5 x i8] c"(iN)\00", align 1

; Function Attrs: nounwind uwtable
define internal ptr @unicode_decodeutf16(ptr noundef %0, ptr noundef %1) #0 {
  %3 = alloca ptr, align 8
  %4 = alloca ptr, align 8
  %5 = alloca ptr, align 8
  %6 = alloca ptr, align 8
  %7 = alloca i64, align 8
  %8 = alloca ptr, align 8
  %9 = alloca i32, align 4
  %10 = alloca ptr, align 8
  %11 = alloca i32, align 4
  store ptr %0, ptr %4, align 8, !tbaa !3
  store ptr %1, ptr %5, align 8, !tbaa !3
  call void @llvm.lifetime.start.p0(i64 8, ptr %6) #7
  call void @llvm.lifetime.start.p0(i64 8, ptr %7) #7
  call void @llvm.lifetime.start.p0(i64 8, ptr %8) #7
  store ptr null, ptr %8, align 8, !tbaa !8
  call void @llvm.lifetime.start.p0(i64 4, ptr %9) #7
  store i32 63256717, ptr %9, align 4, !tbaa !10
  call void @llvm.lifetime.start.p0(i64 8, ptr %10) #7
  %12 = load ptr, ptr %5, align 8, !tbaa !3
  %13 = call i32 (ptr, ptr, ...) @PyArg_ParseTuple(ptr noundef %12, ptr noundef @.str.380, ptr noundef %9, ptr noundef %6, ptr noundef %7, ptr noundef %8)
  %14 = icmp ne i32 %13, 0
  br i1 %14, label %16, label %15

15:                                               ; preds = %2
  store ptr null, ptr %3, align 8
  store i32 1, ptr %11, align 4
  br label %28

16:                                               ; preds = %2
  %17 = load ptr, ptr %6, align 8, !tbaa !8
  %18 = load i64, ptr %7, align 8, !tbaa !12
  %19 = load ptr, ptr %8, align 8, !tbaa !8
  %20 = call ptr @PyUnicode_DecodeUTF16(ptr noundef %17, i64 noundef %18, ptr noundef %19, ptr noundef %9)
  store ptr %20, ptr %10, align 8, !tbaa !3
  %21 = load ptr, ptr %10, align 8, !tbaa !3
  %22 = icmp ne ptr %21, null
  br i1 %22, label %24, label %23

23:                                               ; preds = %16
  store ptr null, ptr %3, align 8
  store i32 1, ptr %11, align 4
  br label %28

24:                                               ; preds = %16
  %25 = load i32, ptr %9, align 4, !tbaa !10
  %26 = load ptr, ptr %10, align 8, !tbaa !3
  %27 = call ptr (ptr, ...) @Py_BuildValue(ptr noundef @.str.381, i32 noundef %25, ptr noundef %26)
  store ptr %27, ptr %3, align 8
  store i32 1, ptr %11, align 4
  br label %28

28:                                               ; preds = %24, %23, %15
  call void @llvm.lifetime.end.p0(i64 8, ptr %10) #7
  call void @llvm.lifetime.end.p0(i64 4, ptr %9) #7
  call void @llvm.lifetime.end.p0(i64 8, ptr %8) #7
  call void @llvm.lifetime.end.p0(i64 8, ptr %7) #7
  call void @llvm.lifetime.end.p0(i64 8, ptr %6) #7
  %29 = load ptr, ptr %3, align 8
  ret ptr %29
}