; Function Attrs: nounwind uwtable
define internal ptr @unicode_decodeutf16(ptr readnone captures(none) %0, ptr noundef %1) #0 {
  %3 = alloca ptr, align 8
  %4 = alloca i64, align 8
  %5 = alloca ptr, align 8
  %6 = alloca i32, align 4
  call void @llvm.lifetime.start.p0(i64 8, ptr nonnull %3) #4
  call void @llvm.lifetime.start.p0(i64 8, ptr nonnull %4) #4
  call void @llvm.lifetime.start.p0(i64 8, ptr nonnull %5) #4
  store ptr null, ptr %5, align 8, !tbaa !3
  call void @llvm.lifetime.start.p0(i64 4, ptr nonnull %6) #4
  store i32 63256717, ptr %6, align 4, !tbaa !12
  %7 = call i32 (ptr, ptr, ...) @PyArg_ParseTuple(ptr noundef %1, ptr noundef nonnull @.str.380, ptr noundef nonnull %6, ptr noundef nonnull %3, ptr noundef nonnull %4, ptr noundef nonnull %5) #4
  %.not = icmp eq i32 %7, 0
  br i1 %.not, label %16, label %8

8:                                                ; preds = %2
  %9 = load ptr, ptr %3, align 8, !tbaa !3
  %10 = load i64, ptr %4, align 8, !tbaa !10
  %11 = load ptr, ptr %5, align 8, !tbaa !3
  %12 = call ptr @PyUnicode_DecodeUTF16(ptr noundef %9, i64 noundef %10, ptr noundef %11, ptr noundef nonnull %6) #4
  %.not5 = icmp eq ptr %12, null
  br i1 %.not5, label %16, label %13

13:                                               ; preds = %8
  %14 = load i32, ptr %6, align 4, !tbaa !12
  %15 = call ptr (ptr, ...) @Py_BuildValue(ptr noundef nonnull @.str.381, i32 noundef %14, ptr noundef nonnull %12) #4
  br label %16

16:                                               ; preds = %8, %2, %13
  %.0 = phi ptr [ %15, %13 ], [ null, %2 ], [ null, %8 ]
  call void @llvm.lifetime.end.p0(i64 4, ptr nonnull %6) #4
  call void @llvm.lifetime.end.p0(i64 8, ptr nonnull %5) #4
  call void @llvm.lifetime.end.p0(i64 8, ptr nonnull %4) #4
  call void @llvm.lifetime.end.p0(i64 8, ptr nonnull %3) #4
  ret ptr %.0
}